(lp0
(dp1
S'geo_coordinates'
p2
(lp3
(F46.8044352
F-92.0703141
tp4
asS'link'
p5
S'http://ijr.com/the-declaration/2017/11/1011624-la-times-viciously-attacked-sanderss-weight-now-embarrassing/'
p6
sS'locations'
p7
(lp8
S'Fox News'
p9
asS'title'
p10
VLA Times Writer Viciously Attacked Sanders's Weight \u2014 What They Have to Do Now Is Embarrassing
p11
sa(dp12
g2
(lp13
(F27.7567667
F-81.4639835
tp14
asg5
S'http://www.washingtonpost.com/blogs/the-fix/wp/2017/11/04/both-bush-presidents-openly-condemned-trump-book-claims-one-even-voted-for-clinton/'
p15
sg7
(lp16
S'Florida'
p17
asg10
S'Analysis | Both Bush presidents openly condemned Trump, book claims. One even voted for Clinton.'
p18
sa(dp19
g2
(lp20
(F42.3604823
F-71.0595678
tp21
a(F35.4729886
F-97.5170536
tp22
asg5
S'http://www.nba.com/celtics/gamerecap/keys-20171103-bosokc'
p23
sg7
(lp24
S'Boston'
p25
aS'Oklahoma City'
p26
asg10
S'Keys to the Game: Celtics 101, Thunder 94'
p27
sa(dp28
g2
(lp29
(F46.2419692
F17.5329993
tp30
asg5
S'http://www.nba.com/lakers/news/171103-running-diary-lakers-nets'
p31
sg7
(lp32
S'Mike'
p33
asg10
S'Running Diary: Lakers vs. Nets (11/3/17)'
p34
sa(dp35
g2
(lp36
(F32.7762719
F-96.7968559
tp37
a(F33.8613328
F-112.1254665
tp38
asg5
S'http://feedproxy.google.com/~r/breitbart/~3/fKNlSjmeHHs/'
p39
sg7
(lp40
S'Dallas'
p41
aS'Anthem'
p42
asg10
S"Papa John's Deciding Whether to Drop NFL Sponsorship After Sales Fall Due to Anthem Protests"
p43
sa(dp44
g2
(lp45
(F40.7902778
F-73.9597222
tp46
a(F34.1028268
F-118.3299899
tp47
asg5
S'http://uproxx.com/news/harvey-weinstein-paz-de-la-huerta/'
p48
sg7
(lp49
S'Manhattan'
p50
aS'Hollywood'
p51
asg10
S"The NYPD 'Have An Actual Case' Against Harvey Weinstein"
p52
sa(dp53
g2
(lp54
(F37.1232245
F-78.4927721
tp55
a(F38.029306
F-78.4766781
tp56
asg5
S'http://thehill.com/blogs/blog-briefing-room/358767-gillespie-ahead-by-3-points-in-new-poll'
p57
sg7
(lp58
S'Virginia'
p59
aS'Charlottesville'
p60
asg10
S'Gillespie ahead by 3 points in new Virginia poll'
p61
sa(dp62
g2
(lp63
(F33.0955793
F44.1749775
tp64
asg5
S'http://feedproxy.google.com/~r/businessinsider/~3/dBpsU9aJpiY/george-hw-bush-calls-trump-a-blowhard-2017-11'
p65
sg7
(lp66
S'Iraq'
p67
asg10
S"The White House fires back after George H.W. Bush calls Trump a 'blowhard'"
p68
sa(dp69
g2
(lp70
(F40.7306458
F-73.9866136
tp71
asg5
S'http://mlb.mlb.com/news/article/mlb/pitcher-masahiro-tanaka-to-stay-with-yankees?ymd=20171103&content_id=260673824&vkey=news_mlb'
p72
sg7
(lp73
S'New York'
p74
asg10
S'Pitcher Masahiro Tanaka to stay with Yankees'
p75
sa(dp76
g2
(lp77
(F46.8044352
F-92.0703141
tp78
asg5
S'http://feedproxy.google.com/~r/breitbart/~3/3paFJ1AKbxQ/'
p79
sg7
(lp80
S'Fox News'
p81
asg10
S"L.A. Times Columnist Apologizes, Retracts 'Body-Shaming' of Sarah Huckabee Sanders"
p82
sa(dp83
g2
(lp84
(F35.4729886
F-97.5170536
tp85
a(F36.7183708
F-76.2466798
tp86
asg5
S'http://www.nba.com/celtics/news/sidebar/post-110317-celtic-pride-makes-thunderous-statement-in-okc'
p87
sg7
(lp88
S'Oklahoma City'
p89
aS'Chesapeake'
p90
asg10
S'Celtic Pride Makes Thunderous Statement in OKC'
p91
sa(dp92
g2
(lp93
(F53.2824686
F-6.3190221
tp94
asg5
S'http://www.tmz.com/2017/11/04/yu-darvish-dodgers-world-series/'
p95
sg7
(lp96
S'Beverly Grove'
p97
asg10
S"Yu Darvish's Emotional World Series Apology, 'I Couldn't Do It, I'm Sorry'"
p98
sa(dp99
g2
(lp100
(F39.7837304
F-100.4458825
tp101
asg5
S'http://www.politicususa.com/2017/11/04/bush-presidents-speak-blowhard-trump-call-unfit-president.html'
p102
sg7
(lp103
S'United States'
p104
asg10
S"Both Bush Presidents Confirm They Didn't Vote For Trump And Call Him Unfit To Be President"
p105
sa(dp106
g2
(lp107
(F33.0955793
F44.1749775
tp108
asg5
S'http://wgntv.com/2017/11/04/copy-george-h-w-bush-labels-trump-a-blowhard-in-new-book/'
p109
sg7
(lp110
S'Iraq'
p111
asg10
VCopy George H.W. Bush labels Trump a \u2018blowhard\u2019 in new book
p112
sa(dp113
g2
(lp114
(F43.7311424
F7.4197576
tp115
a(F53.4791301
F-2.2441009
tp116
asg5
S'http://rss.cnn.com/~r/rss/cnn_topstories/~3/dSMlfUAyukg/2742382-patrice-evra-suspended-by-olympique-marseille-after-kicking-fan'
p117
sg7
(lp118
S'Monaco'
p119
aS'Manchester'
p120
asg10
S'Patrice Evra Suspended by Olympique Marseille After Kicking Fan'
p121
sa(dp122
g2
(lp123
(F8.444585
F125.951249185475
tp124
asg5
S'http://www.mercurynews.com/2017/11/03/tom-steyer-fox-news-pulled-the-plug-on-pro-impeachment-ad/'
p125
sg7
(lp126
S'San Francisco'
p127
asg10
S'Tom Steyer: Fox News pulled the plug on pro-impeachment ad'
p128
sa(dp129
g2
(lp130
(F29.9499323
F-90.0701156
tp131
asg5
S'https://www.cnsnews.com/blog/craig-bannister/saints-call-disabled-veteran-declining-nfl-honor-over-anthem-protests-sad-and'
p132
sg7
(lp133
S'New Orleans'
p134
asg10
S"Saints Call Disabled Veteran Declining NFL Honor Over Anthem Protests 'Sad and Divisive'"
p135
sa(dp136
g2
(lp137
(F38.8949549
F-77.0366456
tp138
asg5
S'http://www.msnbc.com/rachel-maddow/watch/nyt-carter-page-met-russian-officials-informed-trump-campaign-1088391747630'
p139
sg7
(lp140
S'Washington'
p141
asg10
S'NYT: Carter Page met Russian officials, informed Trump campaign'
p142
sa(dp143
g2
(lp144
(F40.3736611
F127.0870417
tp145
asg5
S'http://www.politicususa.com/2017/11/04/chris-matthews-calls-trump-groundhog-day-presidents-idiotic-stuff-day.html'
p146
sg7
(lp147
S'North Korea'
p148
asg10
S"Chris Matthews Calls Trump The 'Groundhog Day' Of Presidents: Same 'Idiotic' Stuff Every Day"
p149
sa(dp150
g2
(lp151
(F37.61003765
F-122.096493097361
tp152
a(F41.5051613
F-81.6934446
tp153
asg5
S'http://uproxx.com/dimemag/gordon-hayward-practicing-broken-ankle-video/'
p154
sg7
(lp155
S'Gordon Hayward'
p156
aS'Cleveland'
p157
asg10
S'Gordon Hayward Is Already Back At Practice Working On His Game'
p158
sa(dp159
g2
(lp160
(F31.8160381
F-99.5120986
tp161
asg5
S'http://nascar.nbcsports.com/2017/11/03/heres-the-starting-lineup-for-sundays-aaa-texas-500/'
p162
sg7
(lp163
S'Texas'
p164
asg10
VHere\u2019s the starting lineup for Sunday\u2019s AAA Texas 500
p165
sa(dp166
g2
(lp167
(F40.7306458
F-73.9866136
tp168
asg5
S'https://www.cbssports.com/mlb/news/masahiro-tanaka-will-remain-with-yankees-for-next-three-years-after-declining-opt-out/'
p169
sg7
(lp170
S'New York'
p171
asg10
S'Masahiro Tanaka to remain with Yankees for next three years after declining opt-out'
p172
sa(dp173
g2
(lp174
(F36.1662859
F-115.149225
tp175
asg5
S'http://www.theblaze.com/news/2017/11/04/police-reveal-what-could-be-a-possible-motive-in-the-las-vegas-shooting/'
p176
sg7
(lp177
S'Las Vegas'
p178
asg10
S'Police reveal what could be a possible motive in the Las Vegas shooting'
p179
sa(dp180
g2
(lp181
(F46.8044352
F-92.0703141
tp182
asg5
S'http://rare.us/rare-news/the-media/columnist-apologizes-to-sarah-huckabee-sanders-for-insensitive-remarks-on-her-appearance/'
p183
sg7
(lp184
S'Fox News'
p185
asg10
VColumnist apologizes to Sarah Huckabee Sanders for \u201cinsensitive\u201d remarks on her appearance
p186
sa(dp187
g2
(lp188
(F31.8160381
F-99.5120986
tp189
asg5
S'http://nascar.nbcsports.com/2017/11/04/saturday-schedule-at-texas-motor-speedway-2/'
p190
sg7
(lp191
S'Texas'
p192
asg10
S'Saturday schedule at Texas Motor Speedway'
p193
sa(dp194
g2
(lp195
(F27.6886419
F-82.5723193
tp196
asg5
S'https://www.cbssports.com/nfl/news/buccaneers-coach-is-concerned-that-the-buccaneers-have-a-culture-of-losing/'
p197
sg7
(lp198
S'Tampa Bay'
p199
asg10
S'Buccaneers coach is concerned that the Buccaneers have a culture of losing'
p200
sa(dp201
g2
(lp202
(F45.38948185
F-122.751310219937
tp203
asg5
S'http://www.nba.com/lakers/releases/171103-larry-nance-injury-report'
p204
sg7
(lp205
S'Portland Trail Blazers'
p206
asg10
S'Larry Nance Jr. Medical Update'
p207
sa(dp208
g2
(lp209
(F33.171276
F-117.245728
tp210
asg5
S'http://abcnews.go.com/US/frat-pledges-death-sparks-investigation-suspension-fraternity/story?id=50929078'
p211
sg7
(lp212
S'Buena Vista Drive'
p213
asg10
S"Frat pledge's death sparks investigation, suspension of fraternity"
p214
sa(dp215
g2
(lp216
(F47.6114034
F-122.33442
tp217
asg5
S'http://www.complex.com/sneakers/2017/11/nike-pg1-bright-violet-release-date-878627-500'
p218
sg7
(lp219
S'Nike'
p220
asg10
S'Purple Nike PG1 Kicks Off December'
p221
sa(dp222
g2
(lp223
(F34.054935
F-118.244476
tp224
asg5
S'http://variety.com/2017/biz/vpage/friends-israel-defense-forces-gala-raises-record-breaking-53-8-million-1202606799/'
p225
sg7
(lp226
S'Los Angeles'
p227
asg10
S'Friends of Israel Defense Forces Gala Raises Record-Breaking $53.8 Million'
p228
sa(dp229
g2
(lp230
(F37.182261
F-118.260475
tp231
asg5
S'http://www.tennisworldusa.org/tennis/news/Andy_Murray/48807/here-is-where-you-can-watch-murray-vs-federer-exhibition-for-free/'
p232
sg7
(lp233
S'Zurich'
p234
asg10
S'Here is where you can watch Murray vs Federer exhibition For Free'
p235
sa(dp236
g2
(lp237
(F39.9523993
F-75.1635899
tp238
asg5
S'http://www.complex.com/sneakers/2017/11/ben-simmons-nike-jersey-ripped'
p239
sg7
(lp240
S'Philadelphia'
p241
asg10
S'Ben Simmons Latest to Have Nike Jersey Ripped in a Game'
p242
sa(dp243
g2
(lp244
(F6.7501787
F-75.3229229277351
tp245
asg5
S'http://profootballtalk.nbcsports.com/2017/11/03/aaron-rodgers-if-im-healthy-and-it-makes-sense-ill-come-back/'
p246
sg7
(lp247
S'Carolina'
p248
asg10
VAaron Rodgers: If I\u2019m healthy and it makes sense, I\u2019ll come back
p249
sa(dp250
g2
(lp251
(F35.4729886
F-97.5170536
tp252
asg5
S'http://www.nba.com/celtics/news/post-ups-20171103'
p253
sg7
(lp254
S'Oklahoma City'
p255
asg10
S'Pregame Post-Ups: Versatility is Name of the Game Tonight'
p256
sa(dp257
g2
(lp258
(F53.7158609
F-1.3823269
tp259
asg5
S'http://crooksandliars.com/2017/11/uh-oh-white-house-didnt-know-sam-clovis'
p260
sg7
(lp261
S'Coffee Boy'
p262
asg10
S"Uh Oh. White House Didn't Know Sam Clovis Testified Last Week"
p263
sa(dp264
g2
(lp265
(F32.3665322
F-96.1008056
tp266
a(F32.7762719
F-96.7968559
tp267
asg5
S'http://ktla.com/2017/11/03/texas-mom-planned-to-kill-her-two-children-weeks-before-sheriff-says/'
p268
sg7
(lp269
S'Mabank'
p270
aS'Dallas'
p271
asg10
V\u2018Please Just Shoot Me,\u2019 Texas Mother Told Husband After Allegedly Killing 2 Young Daughters
p272
sa(dp273
g2
(lp274
(F46.7323875
F-117.0001651
tp275
a(F40.58475245
F-8.46771457113208
tp276
asg5
S'https://www.cnbc.com/2017/11/04/donna-brazile-book-on-hillary-clinton-campaign-dnc-deal.html'
p277
sg7
(lp278
S'Moscow'
p279
aS'HFA.'
p280
asg10
S'Outrage after book claims Clinton campaign effectively bought control of DNC before election'
p281
sa(dp282
g2
(lp283
Nasg5
S'http://feedproxy.google.com/~r/breitbart/~3/XHlSVGzs0wo/'
p284
sg7
(lp285
S'Portland Trailblazers'
p286
asg10
S'PETA Rips Charles Barkley for Rejecting Vegetarianism'
p287
sa(dp288
g2
(lp289
(F40.3641184
F-111.73854
tp290
asg5
S'http://highschoolsports.al.com/news/article/9190294369122225964/pinson-valley-34-pleasant-grove-0-indians-finish-regular-season-undefeated/'
p291
sg7
(lp292
S'Pleasant Grove'
p293
asg10
S'Pinson Valley 34, Pleasant Grove 0: Indians finish regular season undefeated'
p294
sa(dp295
g2
(lp296
(F42.7281938
F-84.4850116892922
tp297
a(F43.6211955
F-84.6824346
tp298
asg5
S'http://www.pennlive.com/pennstatefootball/index.ssf/2017/11/penn_state-michigan_state_to_r.html'
p299
sg7
(lp300
S'Spartan Stadium'
p301
aS'Mich.'
p302
asg10
S'Penn State-Michigan State should resume at 4 p.m.; unclear if FOX, or another network, will air it'
p303
sa(dp304
g2
(lp305
(F47.6038321
F-122.3300624
tp306
asg5
S'http://www.tmz.com/2017/11/03/colin-kaepernick-case-will-include-pete-carroll-paul-allen/'
p307
sg7
(lp308
S'Seattle'
p309
asg10
S'Colin Kaepernick Case Will Include Pete Carroll, Paul Allen'
p310
sa(dp311
g2
(lp312
(F27.6886419
F-82.5723193
tp313
asg5
S'https://www.cbssports.com/nfl/news/cardinals-plan-without-carson-palmer-is-to-feed-the-beast-adrian-peterson/'
p314
sg7
(lp315
S'Tampa Bay'
p316
asg10
S"Cardinals' plan without Carson Palmer is to feed 'the beast,' Adrian Peterson"
p317
sa(dp318
g2
(lp319
Nasg5
S'http://www.mysanantonio.com/sports/high_school/high_school_football/article/Memorial-makes-history-with-win-against-Highlands-12331348.php'
p320
sg7
(lp321
VMinutemen\u2019s
p322
asg10
S'Memorial makes history with win against Highlands'
p323
sa(dp324
g2
(lp325
(F25.7742658
F-80.1936589
tp326
asg5
S'https://www.cbssports.com/nfl/news/dolphins-ndamukong-suh-avoids-fine-after-grabbing-ryan-mallett-by-the-throat/'
p327
sg7
(lp328
S'Miami'
p329
asg10
S"Dolphins' Ndamukong Suh avoids fine after grabbing Ryan Mallett by the throat"
p330
sa(dp331
g2
(lp332
(F38.27312
F-98.5821872
tp333
asg5
S'http://www.dallascowboys.com/news/2017/11/03/gut-feeling-dallascowboyscom-writers%E2%80%99-final-preview-cowboys-chiefs'
p334
sg7
(lp335
S'Kansas'
p336
asg10
VGut Feeling: DallasCowboys.com Writers\u2019 Final Preview Of Cowboys-Chiefs
p337
sa(dp338
g2
(lp339
(F35.7979355
F-78.6118311
tp340
a(F35.875259
F-78.7751271
tp341
asg5
S'http://www.wral.com/durham-bulls-miracle-league-field-expands-baseball-league-for-children-with-disabilities-/17089431/'
p342
sg7
(lp343
S'Wake County'
p344
aS'Triangle'
p345
asg10
S'Bulls back Miracle League field for children with disabilities to play ball ::'
p346
sa(dp347
g2
(lp348
(F32.982418
F-80.619816
tp349
a(F50.0601579
F13.8307479420999
tp350
asg5
S'http://www.kansascity.com/news/local/article182760136.html#storylink=rss'
p351
sg7
(lp352
S'Candle Light'
p353
aS'St.'
p354
asg10
VGirl, 5, reported missing from Grandview home. Police seek public\u2019s help in locating.
p355
sa(dp356
g2
(lp357
(F39.7837304
F-100.4458825
tp358
asg5
S'http://www.complex.com/sports/2017/11/owners-cell-phone-records-sought-in-colin-kaepernick-collusion-deposition'
p359
sg7
(lp360
S'United States'
p361
asg10
S'NFL Owners Will Be Asked to Turn Over Cell Phone Records and Emails in Kaepernick Collusion Case'
p362
sa(dp363
g2
(lp364
(F-33.8548157
F151.2164539
tp365
asg5
S'http://www.tennisworldusa.org/tennis/news/Serena_Williams/48815/serena-williams-2018-schedule-is-a-mystery-unlikely-to-play-brisbane/'
p366
sg7
(lp367
S'Sydney'
p368
asg10
S"Serena Williams' 2018 schedule is a mystery: unlikely to play Brisbane"
p369
sa(dp370
g2
(lp371
(F26.301135
F-81.797742
tp372
asg5
S'http://www.nbcsports.com/chicago/white-sox/white-sox-add-prospect-daniel-palka-twins-waivers-power-potential'
p373
sg7
(lp374
S'Gulf Coast'
p375
asg10
S'White Sox add prospect with intriguing power potential'
p376
sa(dp377
g2
(lp378
(F44.5990718
F-72.5002608
tp379
asg5
S'http://dailycaller.com/2017/11/03/trump-what-happened-to-bernie-sanders-with-dnc-was-horrible-video/'
p380
sg7
(lp381
S'Vermont'
p382
asg10
VTrump: What Happened To Bernie Sanders With DNC Was \u2018Horrible\u2019 [VIDEO]
p383
sa(dp384
g2
(lp385
(F35.4729886
F-97.5170536
tp386
asg5
S'http://boston.cbslocal.com/2017/11/04/celtics-7-7-2-record/'
p387
sg7
(lp388
S'Oklahoma City'
p389
asg10
S'Celtics @ 7: What A 7-2 Record Means For The Celtics'
p390
sa(dp391
g2
(lp392
(F40.3270127
F-86.1746933
tp393
a(F39.6188156
F-106.4285445
tp394
asg5
S'http://www.theindychannel.com/news/local-news/owen-county/suspect-in-31-hour-standoff-killed-after-firing-several-shots-at-officers'
p395
sg7
(lp396
S'Ind.'
p397
aS'Kinnickinick Ridge'
p398
asg10
S'Suspect in 31 hour standoff killed after firing several shots at officers, hostages rescued'
p399
sa(dp400
g2
(lp401
(F34.1028268
F-118.3299899
tp402
asg5
S'http://www.washingtonexaminer.com/trust-donna-brazile-democrats-youre-better-off-without-clinton-and-obama/article/2639620'
p403
sg7
(lp404
S'Hollywood'
p405
asg10
S"Trust Donna Brazile, Democrats: You're better off without Clinton and Obama"
p406
sa(dp407
g2
(lp408
(F41.71803185
F-75.5583619505367
tp409
a(F39.2744299
F-88.2423795
tp410
asg5
S'http://www.pennlive.com/news/2017/11/12_reasons_tuesdays_election_i.html'
p411
sg7
(lp412
S'Susquehanna Township'
p413
aS'Cumberland County'
p414
asg10
S"11 reasons Tuesday's election is more important to you than Trump vs. Clinton in 2016"
p415
sa(dp416
g2
(lp417
(F64.6863136
F97.7453061
tp418
asg5
S'http://insider.foxnews.com/2017/11/03/byron-york-braziles-claims-full-scale-indictment-entire-power-structure-dnc'
p419
sg7
(lp420
S'Russia'
p421
asg10
S"Byron York on Brazile's Claims: 'A Full-Scale Indictment of the Entire Power Structure at the DNC'"
p422
sa(dp423
g2
(lp424
(F28.3861159
F-80.7419984
tp425
a(F41.1421905
F-87.8613221
tp426
asg5
S'http://rssfeeds.floridatoday.com/~/485498618/0/brevard/sports~Rockledge-beats-Cocoa-to-highlight-Week/'
p427
sg7
(lp428
S'Cocoa'
p429
aS'Bradley'
p430
asg10
S'Rockledge beats Cocoa to highlight Week 11'
p431
sa(dp432
g2
(lp433
(F40.7306458
F-73.9866136
tp434
asg5
S'http://nypost.com/2017/11/03/masahiro-tanaka-staying-with-yankees/'
p435
sg7
(lp436
S'New York'
p437
asg10
S'Masahiro Tanaka had to make decision to stay with Yankees'
p438
sa(dp439
g2
(lp440
(F40.7306458
F-73.9866136
tp441
a(F40.7306458
F-73.9866136
tp442
asg5
S'http://www.businessinsider.com/anthony-weiner-prison-sentence-2017-11'
p443
sg7
(lp444
S'New York City'
p445
aS'New York'
p446
asg10
S'Anthony Weiner ordered to report to prison by Monday'
p447
sa(dp448
g2
(lp449
(F38.8949549
F-77.0366456
tp450
a(F41.5051613
F-81.6934446
tp451
asg5
S'http://www.complex.com/sports/2017/11/wizards-player-kelly-oubre-jr-could-be-fined-by-nba-over-his-choice-of-coat'
p452
sg7
(lp453
S'Washington'
p454
aS'Cleveland'
p455
asg10
S'Wizards Player Kelly Oubre Jr. Could Be Fined By NBA Over His Choice of Coat'
p456
sa(dp457
g2
(lp458
(F45.9896587
F-94.6113288
tp459
a(F7.0523847
F-4.4419131
tp460
asg5
S'http://www.twincities.com/2017/11/03/mille-lacs-ice-fishing-walleye-regulations-announced/'
p461
sg7
(lp462
S'Minn.'
p463
aS'Lacs Lake'
p464
asg10
S'Mille Lacs ice fishing walleye regulations announced'
p465
sa(dp466
g2
(lp467
(F41.5051613
F-81.6934446
tp468
asg5
S'http://uproxx.com/dimemag/paul-piece-thinks-lebron-james-sign-washington-wizards/'
p469
sg7
(lp470
S'Cleveland'
p471
asg10
S'Paul Pierce Thinks LeBron James Should Sign With The Wizards'
p472
sa(dp473
g2
(lp474
(F35.4729886
F-97.5170536
tp475
a(F42.3604823
F-71.0595678
tp476
asg5
S'http://www.nbcsports.com/boston/celtics/al-horford-leads-boston-celtics-comeback-win-over-oklahoma-city-thunder-extending-win-streak-7'
p477
sg7
(lp478
S'Oklahoma City'
p479
aS'Boston'
p480
asg10
S"Horford leads C's to comeback win over Thunder, extending win streak to 7"
p481
sa(dp482
g2
(lp483
(F41.5051613
F-81.6934446
tp484
a(F38.8949549
F-77.0366456
tp485
asg5
S'http://uproxx.com/dimemag/lebron-james-57-points-cavs-wizards/'
p486
sg7
(lp487
S'Cleveland'
p488
aS'Washington'
p489
asg10
S'LeBron Put The Cavs On His Back With A Huge 57-Point Game Vs. Wizards'
p490
sa(dp491
g2
(lp492
(F45.9896587
F-94.6113288
tp493
asg5
S'http://minnesota.cbslocal.com/2017/11/03/stillwater-magnificent-7/'
p494
sg7
(lp495
S'Minnesota'
p496
asg10
VStillwater\u2019s Magnificent 7: 20 Years Later
p497
sa(dp498
g2
(lp499
(F8.444585
F125.951249185475
tp500
a(F35.9301898
F139.3990527
tp501
asg5
S'https://townhall.com/columnists/jeffcrouere/2017/11/04/saints-criticize-navy-veteran-who-supports-anthem-n2404738'
p502
sg7
(lp503
S'San Francisco'
p504
aS'50'
p505
asg10
S'Saints Criticize Navy Veteran Who Supports Anthem'
p506
sa(dp507
g2
(lp508
(F39.7837304
F-100.4458825
tp509
a(F35.7803977
F-78.6390989
tp510
asg5
S'http://www.wral.com/fall-back-this-weekend/16184015/'
p511
sg7
(lp512
S'United States'
p513
aS'Raleigh.'
p514
asg10
S'Fall back this weekend ::'
p515
sa(dp516
g2
(lp517
(F22.3511148
F78.6677428
tp518
asg5
S'http://www.tennisworldusa.org/tennis/news/Maria_Sharapova/48852/chris-evert-sharapova-doesn-t-talk-to-the-other-women-in-the-locker-room-/'
p519
sg7
(lp520
S'India'
p521
asg10
S"Chris Evert: 'Sharapova doesn't talk to the other women in the locker room'"
p522
sa(dp523
g2
(lp524
(F29.4246002
F-98.4951405
tp525
a(F35.2270869
F-80.8431268
tp526
asg5
S'https://www.cbssports.com/nba/news/watch-manu-ginobili-turns-back-clock-with-thunderous-jam-in-1000th-game/'
p527
sg7
(lp528
S'San Antonio'
p529
aS'Charlotte'
p530
asg10
S'WATCH: Manu Ginobili turns back clock with thunderous jam in 1,000th game'
p531
sa(dp532
g2
(lp533
(F45.9896587
F-94.6113288
tp534
a(F38.0608444
F-97.9297743
tp535
asg5
S'http://minnesota.cbslocal.com/2017/11/03/deer-stand-injury/'
p536
sg7
(lp537
S'Minnesota'
p538
aS'Hutchinson'
p539
asg10
S'Man Falls From Deer Stand, Breaks Back, Drives Home For Help'
p540
sa(dp541
g2
(lp542
(F15.6134137
F19.0156172
tp543
a(F42.3604823
F-71.0595678
tp544
asg5
S'https://www.boston.com/sports/sports-q/2017/11/04/are-you-disappointed-the-patriots-traded-jimmy-garoppolo'
p545
sg7
(lp546
S'Chad'
p547
aS'Boston'
p548
asg10
S'Are you disappointed the Patriots traded Jimmy Garoppolo?'
p549
sa(dp550
g2
(lp551
(F42.120868
F-85.526382
tp552
a(F43.6211955
F-84.6824346
tp553
asg5
S'http://www.pennlive.com/pennstatefootball/index.ssf/2017/11/penn_state_trace_mcsorley_care.html'
p554
sg7
(lp555
S'Michigan State'
p556
aS'Mich.'
p557
asg10
S"Penn State's Trace McSorley is now the Lions' all-time career passing touchdowns leader"
p558
sa(dp559
g2
(lp560
(F-33.8548157
F151.2164539
tp561
asg5
S'http://www.tennisworldusa.org/tennis/news/Serena_Williams/48815/serena-williams-s-2018-schedule-is-a-mistery-unlikely-to-play-brisbane/'
p562
sg7
(lp563
S'Sydney'
p564
asg10
S"Serena Williams's 2018 schedule is a mistery: unlikely to play Brisbane"
p565
sa(dp566
g2
(lp567
(F37.1232245
F-78.4927721
tp568
asg5
S'http://www.realclearpolitics.com/video/2017/11/04/david_brooks_those_of_us_trying_to_rebut_trump_have_the_disadvantage_that_our_elites_really_do_stink.html'
p569
sg7
(lp570
S'Virginia'
p571
asg10
S'David Brooks: Those Of Us Trying To Rebut Trump Have The Disadvantage That "Our Elites Really Do Stink"'
p572
sa(dp573
g2
(lp574
(F33.0955793
F44.1749775
tp575
asg5
S'http://fox6now.com/2017/11/04/george-h-w-bush-labels-president-trump-a-blowhard-in-new-book/'
p576
sg7
(lp577
S'Iraq'
p578
asg10
VGeorge H.W. Bush labels President Trump a \u2018blowhard\u2019 in new book
p579
sa(dp580
g2
(lp581
(F32.8295183
F-96.9442177
tp582
asg5
S'http://uproxx.com/dimemag/kyrie-irving-unbelievably-craving-intellectual-coach-brad-stevens/'
p583
sg7
(lp584
S'Irving'
p585
asg10
S"Kyrie Irving Was 'Craving' An Intellectual Coach Like Brad Stevens"
p586
sa(dp587
g2
(lp588
(F41.5051613
F-81.6934446
tp589
asg5
S'http://www.complex.com/sports/2017/11/lebron-james-29000-career-points'
p590
sg7
(lp591
S'Cleveland'
p592
asg10
S'LeBron Becomes Youngest NBA Player Ever to Score 29,000 Career Points'
p593
sa(dp594
g2
(lp595
(F29.7589382
F-95.3676974
tp596
asg5
S'http://www.chron.com/news/houston-texas/houston/article/Study-ranks-which-MLB-teams-have-the-brightest-12331102.php'
p597
sg7
(lp598
S'Houston'
p599
asg10
S'Study predicts how well Astros and other MLB teams will perform next year'
p600
sa(dp601
g2
(lp602
(F35.4729886
F-97.5170536
tp603
a(F28.554096
F-81.4085784254174
tp604
asg5
S'http://boston.cbslocal.com/2017/11/04/boston-celtics-oklahoma-city-thunder/'
p605
sg7
(lp606
S'Oklahoma City'
p607
aS'Orlando Magic.'
p608
asg10
S'Celtics Storm Back For Road Win Over Thunder'
p609
sa(dp610
g2
(lp611
(F43.255205
F-79.868202
tp612
a(F-17.6247511
F-149.6083311
tp613
asg5
S'http://www.sportingnews.com/au/league/news/rugby-league-fans-call-for-regular-series-between-tonga-and-samoa-rlwc-nrl/1nk4iaipn1o4l1mfur5vhgknsc'
p614
sg7
(lp615
S'Hamilton'
p616
aS'Pacific Islands'
p617
asg10
S'Rugby league fans call for regular series between Tonga and Samoa'
p618
sa(dp619
g2
(lp620
(F47.4873376
F-121.8622122
tp621
asg5
S'http://www.newser.com/story/251108/new-jfk-files-contain-explosive-mlk-allegations.html'
p622
sg7
(lp623
S'King'
p624
asg10
S'New JFK Files Contain Explosive MLK Allegations'
p625
sa(dp626
g2
(lp627
(F47.6038321
F-122.3300624
tp628
asg5
S'http://www.49ers.com/news/article-2/Foster-Questionable-Seven-49ers-Out-for-Week-9-vs-Cardinals/b0bcd04b-3c9b-4b97-893e-2c4781aece6f'
p629
sg7
(lp630
S'Seattle'
p631
asg10
S'Foster Questionable, Seven 49ers Out for Week 9 vs. Cardinals'
p632
sa(dp633
g2
(lp634
(F40.7306458
F-73.9866136
tp635
a(F-3.5639671
F-39.5179952
tp636
asg5
S'http://www.nydailynews.com/sports/baseball/yankees/masahiro-tanaka-opts-stay-yankees-seasons-article-1.3609923'
p637
sg7
(lp638
S'New York'
p639
aS'Severino'
p640
asg10
S'Masahiro Tanaka opts in, will stay with Yankees for three seasons'
p641
sa(dp642
g2
(lp643
(F39.9523993
F-75.1635899
tp644
asg5
S'https://www.cbssports.com/nba/news/sixers-rookie-ben-simmons-joins-elite-company-with-second-triple-double/'
p645
sg7
(lp646
S'Philadelphia'
p647
asg10
S'Sixers rookie Ben Simmons joins elite company with second triple-double'
p648
sa(dp649
g2
(lp650
(F35.7234734
F-79.4622431
tp651
a(F38.0472916
F-89.8107962
tp652
asg5
S'http://myfox8.com/2017/11/03/randolph-county-mother-accused-of-using-kids-to-break-into-buildings-posting-videos-on-youtube/'
p653
sg7
(lp654
S'Siler City'
p655
aS'Randolph County'
p656
asg10
S'Randolph County mother accused of using kids to break into buildings, posting videos on YouTube'
p657
sa(dp658
g2
(lp659
(F-33.88906005
F151.225387171003
tp660
a(F40.3429683
F-76.4233816
tp661
asg5
S'http://www.sportingnews.com/au/league/news/watch-england-awarded-try-after-farcical-video-ref-decision-lebanon-rlwc/17n4nvavyo1021u8ytguhzqz03'
p662
sg7
(lp663
S'Allianz Stadium'
p664
aS'Lebanon'
p665
asg10
S'WATCH: England awarded try after farcical video ref decision'
p666
sa(dp667
g2
(lp668
(F36.9786449
F-76.4321089
tp669
a(F46.2303063
F7.6605757
tp670
asg5
S'http://wtkr.com/2017/11/04/15-year-old-killed-in-newport-news-shooting/'
p671
sg7
(lp672
S'Newport News'
p673
aS'Va.'
p674
asg10
S'15-year-old killed in Newport News shooting'
p675
sa(dp676
g2
(lp677
(F42.3486635
F-83.0567375
tp678
asg5
S'http://rssfeeds.detroitnews.com/~/485912418/0/detroit/home~WSU-student-reports-rape-in-residential-hall/'
p679
sg7
(lp680
S'Detroit'
p681
asg10
S'WSU student reports rape in residential hall'
p682
sa(dp683
g2
(lp684
(F39.9523993
F-75.1635899
tp685
asg5
S'http://www.inforum.com/sports/4354314-family-10-year-old-boy-lost-cancer-featured-espn-piece-be-special-guests-bison-home'
p686
sg7
(lp687
S'Philadelphia'
p688
asg10
S'Family of 10-year-old boy lost to cancer, featured in ESPN piece...'
p689
sa.